target datalayout = "e-m:e-p270:32:32-p271:32:32-p272:64:64-i64:64-i128:128-f80:128-n8:16:32:64-S128"
target triple = "x86_64-pc-linux-gnu"

%"struct.absl::random_internal::DistributionMoments" = type { i64, double, double, double, double }

; Function Attrs: mustprogress nounwind uwtable
define dso_local noundef double @_ZN4absl15random_internal6ZScoreEdRKNS0_19DistributionMomentsE(double noundef %0, ptr noundef nonnull align 8 dereferenceable(40) %1) #0 {
  %3 = alloca double, align 8
  %4 = alloca ptr, align 8
  store double %0, ptr %3, align 8, !tbaa !11
  store ptr %1, ptr %4, align 8, !tbaa !22
  %5 = load ptr, ptr %4, align 8, !tbaa !22
  %6 = getelementptr inbounds nuw %"struct.absl::random_internal::DistributionMoments", ptr %5, i32 0, i32 1
  %7 = load double, ptr %6, align 8, !tbaa !16
  %8 = load double, ptr %3, align 8, !tbaa !11
  %9 = fsub double %7, %8
  %10 = load ptr, ptr %4, align 8, !tbaa !22
  %11 = getelementptr inbounds nuw %"struct.absl::random_internal::DistributionMoments", ptr %10, i32 0, i32 2
  %12 = load double, ptr %11, align 8, !tbaa !17
  %13 = call double @sqrt(double noundef %12) #12, !tbaa !20
  %14 = load ptr, ptr %4, align 8, !tbaa !22
  %15 = getelementptr inbounds nuw %"struct.absl::random_internal::DistributionMoments", ptr %14, i32 0, i32 0
  %16 = load i64, ptr %15, align 8, !tbaa !13
  %17 = uitofp i64 %16 to double
  %18 = call double @sqrt(double noundef %17) #12, !tbaa !20
  %19 = fdiv double %13, %18
  %20 = fdiv double %9, %19
  ret double %20
}