; Function Attrs: mustprogress nofree nounwind willreturn memory(write, argmem: readwrite) uwtable
define dso_local noundef double @_ZN4absl15random_internal6ZScoreEdRKNS0_19DistributionMomentsE(double noundef %0, ptr noundef nonnull readonly align 8 captures(none) dereferenceable(40) %1) local_unnamed_addr #10 {
  %3 = getelementptr inbounds nuw i8, ptr %1, i64 8
  %4 = load double, ptr %3, align 8, !tbaa !4
  %5 = fsub double %4, %0
  %6 = getelementptr inbounds nuw i8, ptr %1, i64 16
  %7 = load double, ptr %6, align 8, !tbaa !11
  %8 = tail call double @sqrt(double noundef %7) #15, !tbaa !12
  %9 = load i64, ptr %1, align 8, !tbaa !39
  %10 = uitofp i64 %9 to double
  %sqrt = tail call double @llvm.sqrt.f64(double %10)
  %11 = fdiv double %8, %sqrt
  %12 = fdiv double %5, %11
  ret double %12
}